target datalayout = "e-m:e-p270:32:32-p271:32:32-p272:64:64-i64:64-i128:128-f80:128-n8:16:32:64-S128"
target triple = "x86_64-pc-linux-gnu"

%union.av_intfloat32 = type { i32 }

; Function Attrs: nounwind uwtable
define internal void @sbr_qmf_post_shuffle_c(ptr noundef %0, ptr noundef %1) #1 {
  %3 = alloca ptr, align 8
  %4 = alloca ptr, align 8
  %5 = alloca ptr, align 8
  %6 = alloca ptr, align 8
  %7 = alloca i32, align 4
  store ptr %0, ptr %3, align 8, !tbaa !21
  store ptr %1, ptr %4, align 8, !tbaa !21
  call void @llvm.lifetime.start.p0(i64 8, ptr %5) #5
  %8 = load ptr, ptr %4, align 8, !tbaa !21
  store ptr %8, ptr %5, align 8, !tbaa !30
  call void @llvm.lifetime.start.p0(i64 8, ptr %6) #5
  %9 = load ptr, ptr %3, align 8, !tbaa !21
  store ptr %9, ptr %6, align 8, !tbaa !30
  call void @llvm.lifetime.start.p0(i64 4, ptr %7) #5
  store i32 0, ptr %7, align 4, !tbaa !23
  br label %10

10:                                               ; preds = %64, %2
  %11 = load i32, ptr %7, align 4, !tbaa !23
  %12 = icmp slt i32 %11, 32
  br i1 %12, label %13, label %67

13:                                               ; preds = %10
  %14 = load ptr, ptr %5, align 8, !tbaa !30
  %15 = load i32, ptr %7, align 4, !tbaa !23
  %16 = sub nsw i32 63, %15
  %17 = sext i32 %16 to i64
  %18 = getelementptr inbounds %union.av_intfloat32, ptr %14, i64 %17
  %19 = load i32, ptr %18, align 4, !tbaa !32
  %20 = xor i32 %19, -2147483648
  %21 = load ptr, ptr %6, align 8, !tbaa !30
  %22 = load i32, ptr %7, align 4, !tbaa !23
  %23 = mul nsw i32 2, %22
  %24 = add nsw i32 %23, 0
  %25 = sext i32 %24 to i64
  %26 = getelementptr inbounds %union.av_intfloat32, ptr %21, i64 %25
  store i32 %20, ptr %26, align 4, !tbaa !32
  %27 = load ptr, ptr %5, align 8, !tbaa !30
  %28 = load i32, ptr %7, align 4, !tbaa !23
  %29 = add nsw i32 %28, 0
  %30 = sext i32 %29 to i64
  %31 = getelementptr inbounds %union.av_intfloat32, ptr %27, i64 %30
  %32 = load i32, ptr %31, align 4, !tbaa !32
  %33 = load ptr, ptr %6, align 8, !tbaa !30
  %34 = load i32, ptr %7, align 4, !tbaa !23
  %35 = mul nsw i32 2, %34
  %36 = add nsw i32 %35, 1
  %37 = sext i32 %36 to i64
  %38 = getelementptr inbounds %union.av_intfloat32, ptr %33, i64 %37
  store i32 %32, ptr %38, align 4, !tbaa !32
  %39 = load ptr, ptr %5, align 8, !tbaa !30
  %40 = load i32, ptr %7, align 4, !tbaa !23
  %41 = sub nsw i32 62, %40
  %42 = sext i32 %41 to i64
  %43 = getelementptr inbounds %union.av_intfloat32, ptr %39, i64 %42
  %44 = load i32, ptr %43, align 4, !tbaa !32
  %45 = xor i32 %44, -2147483648
  %46 = load ptr, ptr %6, align 8, !tbaa !30
  %47 = load i32, ptr %7, align 4, !tbaa !23
  %48 = mul nsw i32 2, %47
  %49 = add nsw i32 %48, 2
  %50 = sext i32 %49 to i64
  %51 = getelementptr inbounds %union.av_intfloat32, ptr %46, i64 %50
  store i32 %45, ptr %51, align 4, !tbaa !32
  %52 = load ptr, ptr %5, align 8, !tbaa !30
  %53 = load i32, ptr %7, align 4, !tbaa !23
  %54 = add nsw i32 %53, 1
  %55 = sext i32 %54 to i64
  %56 = getelementptr inbounds %union.av_intfloat32, ptr %52, i64 %55
  %57 = load i32, ptr %56, align 4, !tbaa !32
  %58 = load ptr, ptr %6, align 8, !tbaa !30
  %59 = load i32, ptr %7, align 4, !tbaa !23
  %60 = mul nsw i32 2, %59
  %61 = add nsw i32 %60, 3
  %62 = sext i32 %61 to i64
  %63 = getelementptr inbounds %union.av_intfloat32, ptr %58, i64 %62
  store i32 %57, ptr %63, align 4, !tbaa !32
  br label %64

64:                                               ; preds = %13
  %65 = load i32, ptr %7, align 4, !tbaa !23
  %66 = add nsw i32 %65, 2
  store i32 %66, ptr %7, align 4, !tbaa !23
  br label %10, !llvm.loop !35

67:                                               ; preds = %10
  call void @llvm.lifetime.end.p0(i64 4, ptr %7) #5
  call void @llvm.lifetime.end.p0(i64 8, ptr %6) #5
  call void @llvm.lifetime.end.p0(i64 8, ptr %5) #5
  ret void
}