; Function Attrs: nofree norecurse nosync nounwind memory(argmem: readwrite) uwtable
define internal void @sbr_qmf_post_shuffle_c(ptr noundef writeonly captures(none) %0, ptr noundef readonly captures(none) %1) #1 {
  br label %3

3:                                                ; preds = %2, %3
  %indvars.iv = phi i64 [ 0, %2 ], [ %indvars.iv.next, %3 ]
  %4 = sub nuw nsw i64 63, %indvars.iv
  %5 = getelementptr inbounds nuw %union.av_intfloat32, ptr %1, i64 %4
  %6 = load i32, ptr %5, align 4, !tbaa !24
  %7 = xor i32 %6, -2147483648
  %.idx = shl nuw nsw i64 %indvars.iv, 3
  %8 = getelementptr inbounds nuw i8, ptr %0, i64 %.idx
  store i32 %7, ptr %8, align 4, !tbaa !24
  %9 = getelementptr inbounds nuw %union.av_intfloat32, ptr %1, i64 %indvars.iv
  %10 = load i32, ptr %9, align 4, !tbaa !24
  %11 = getelementptr inbounds nuw i8, ptr %8, i64 4
  store i32 %10, ptr %11, align 4, !tbaa !24
  %12 = sub nuw nsw i64 62, %indvars.iv
  %13 = getelementptr inbounds nuw %union.av_intfloat32, ptr %1, i64 %12
  %14 = load i32, ptr %13, align 4, !tbaa !24
  %15 = xor i32 %14, -2147483648
  %16 = getelementptr inbounds nuw i8, ptr %8, i64 8
  store i32 %15, ptr %16, align 4, !tbaa !24
  %17 = getelementptr inbounds nuw i8, ptr %9, i64 4
  %18 = load i32, ptr %17, align 4, !tbaa !24
  %19 = getelementptr inbounds nuw i8, ptr %8, i64 12
  store i32 %18, ptr %19, align 4, !tbaa !24
  %indvars.iv.next = add nuw nsw i64 %indvars.iv, 2
  %20 = icmp samesign ult i64 %indvars.iv, 30
  br i1 %20, label %3, label %21, !llvm.loop !27

21:                                               ; preds = %3
  ret void
}